target datalayout = "e-m:e-p270:32:32-p271:32:32-p272:64:64-i64:64-i128:128-f80:128-n8:16:32:64-S128"
target triple = "x86_64-pc-linux-gnu"

%struct.VuDev = type { i32, i32, ptr, ptr, %struct.VuDevInflightInfo, i32, %union.pthread_mutex_t, i32, i64, ptr, i64, i64, i8, i16, ptr, ptr, ptr, ptr, ptr, i32, i8 }
%struct.VuDevInflightInfo = type { i32, ptr, i64 }
%union.pthread_mutex_t = type { %struct.__pthread_mutex_s }
%struct.__pthread_mutex_s = type { i32, i32, i32, i32, i32, i16, i16, %struct.__pthread_internal_list }
%struct.__pthread_internal_list = type { ptr, ptr }
%struct.VhostUserMsg = type <{ i32, i32, i32, %union.anon, [8 x i32], i32, ptr }>
%union.anon = type { %struct.VhostUserMemory, [8 x i8] }
%struct.VhostUserMemory = type { i32, i32, [8 x %struct.VhostUserMemoryRegion] }
%struct.VhostUserMemoryRegion = type { i64, i64, i64, i64 }
%struct.VuDevIface = type { ptr, ptr, ptr, ptr, ptr, ptr, ptr, ptr, ptr, ptr }
%struct.VhostUserConfig = type { i32, i32, i32, [256 x i8] }

@.str.81 = private unnamed_addr constant [38 x i8] c"Set virtio configuration space failed\00", align 1

; Function Attrs: nounwind uwtable
define internal zeroext i1 @vu_set_config(ptr noundef %0, ptr noundef %1) #0 {
  %3 = alloca ptr, align 8
  %4 = alloca ptr, align 8
  %5 = alloca i32, align 4
  store ptr %0, ptr %3, align 8
  store ptr %1, ptr %4, align 8
  call void @llvm.lifetime.start.p0(i64 4, ptr %5) #13
  store i32 -1, ptr %5, align 4
  %6 = load ptr, ptr %3, align 8
  %7 = getelementptr inbounds nuw %struct.VuDev, ptr %6, i32 0, i32 18
  %8 = load ptr, ptr %7, align 8
  %9 = getelementptr inbounds nuw %struct.VuDevIface, ptr %8, i32 0, i32 8
  %10 = load ptr, ptr %9, align 8
  %11 = icmp ne ptr %10, null
  br i1 %11, label %12, label %41

12:                                               ; preds = %2
  %13 = load ptr, ptr %3, align 8
  %14 = getelementptr inbounds nuw %struct.VuDev, ptr %13, i32 0, i32 18
  %15 = load ptr, ptr %14, align 8
  %16 = getelementptr inbounds nuw %struct.VuDevIface, ptr %15, i32 0, i32 8
  %17 = load ptr, ptr %16, align 8
  %18 = load ptr, ptr %3, align 8
  %19 = load ptr, ptr %4, align 8
  %20 = getelementptr inbounds nuw %struct.VhostUserMsg, ptr %19, i32 0, i32 3
  %21 = getelementptr inbounds nuw %struct.VhostUserConfig, ptr %20, i32 0, i32 3
  %22 = getelementptr inbounds [256 x i8], ptr %21, i64 0, i64 0
  %23 = load ptr, ptr %4, align 8
  %24 = getelementptr inbounds nuw %struct.VhostUserMsg, ptr %23, i32 0, i32 3
  %25 = getelementptr inbounds nuw %struct.VhostUserConfig, ptr %24, i32 0, i32 0
  %26 = load i32, ptr %25, align 1
  %27 = load ptr, ptr %4, align 8
  %28 = getelementptr inbounds nuw %struct.VhostUserMsg, ptr %27, i32 0, i32 3
  %29 = getelementptr inbounds nuw %struct.VhostUserConfig, ptr %28, i32 0, i32 1
  %30 = load i32, ptr %29, align 1
  %31 = load ptr, ptr %4, align 8
  %32 = getelementptr inbounds nuw %struct.VhostUserMsg, ptr %31, i32 0, i32 3
  %33 = getelementptr inbounds nuw %struct.VhostUserConfig, ptr %32, i32 0, i32 2
  %34 = load i32, ptr %33, align 1
  %35 = call i32 %17(ptr noundef %18, ptr noundef %22, i32 noundef %26, i32 noundef %30, i32 noundef %34)
  store i32 %35, ptr %5, align 4
  %36 = load i32, ptr %5, align 4
  %37 = icmp ne i32 %36, 0
  br i1 %37, label %38, label %40

38:                                               ; preds = %12
  %39 = load ptr, ptr %3, align 8
  call void (ptr, ptr, ...) @vu_panic(ptr noundef %39, ptr noundef @.str.81)
  br label %40

40:                                               ; preds = %38, %12
  br label %41

41:                                               ; preds = %40, %2
  call void @llvm.lifetime.end.p0(i64 4, ptr %5) #13
  ret i1 false
}