; Function Attrs: nounwind uwtable
define internal fastcc void @vu_set_config(ptr noundef %0, ptr noundef nonnull %1) unnamed_addr #3 {
  %3 = getelementptr inbounds nuw i8, ptr %0, i64 176
  %4 = load ptr, ptr %3, align 8
  %5 = getelementptr inbounds nuw i8, ptr %4, i64 64
  %6 = load ptr, ptr %5, align 8
  %.not = icmp eq ptr %6, null
  br i1 %.not, label %17, label %7

7:                                                ; preds = %2
  %8 = getelementptr inbounds nuw i8, ptr %1, i64 12
  %9 = getelementptr inbounds nuw i8, ptr %1, i64 24
  %10 = load i32, ptr %8, align 1
  %11 = getelementptr inbounds nuw i8, ptr %1, i64 16
  %12 = load i32, ptr %11, align 1
  %13 = getelementptr inbounds nuw i8, ptr %1, i64 20
  %14 = load i32, ptr %13, align 1
  %15 = tail call i32 %6(ptr noundef nonnull %0, ptr noundef nonnull %9, i32 noundef %10, i32 noundef %12, i32 noundef %14) #21
  %.not8 = icmp eq i32 %15, 0
  br i1 %.not8, label %17, label %16

16:                                               ; preds = %7
  tail call void (ptr, ptr, ...) @vu_panic(ptr noundef nonnull %0, ptr noundef nonnull @.str.81)
  br label %17

17:                                               ; preds = %7, %16, %2
  ret void
}